; Function Attrs: nounwind uwtable
define ptr @l___private_Lean_Meta_Tactic_Grind_Beta_0__Lean_Meta_Grind_isPropagateBetaTarget(ptr noundef %0, ptr noundef %1, ptr noundef %2, ptr noundef %3, ptr noundef %4, ptr noundef %5, ptr noundef %6, ptr noundef %7, ptr noundef %8, ptr noundef %9) local_unnamed_addr #0 {
  %11 = ptrtoint ptr %0 to i64
  %12 = and i64 %11, 1
  %.not.i = icmp eq i64 %12, 0
  br i1 %.not.i, label %16, label %13

13:                                               ; preds = %10
  %14 = lshr i64 %11, 1
  %15 = trunc i64 %14 to i32
  br label %lean_obj_tag.exit

16:                                               ; preds = %10
  %17 = getelementptr i8, ptr %0, i64 4
  %.val.i = load i32, ptr %17, align 4
  %18 = lshr i32 %.val.i, 24
  br label %lean_obj_tag.exit

lean_obj_tag.exit:                                ; preds = %13, %16
  %.0.i = phi i32 [ %15, %13 ], [ %18, %16 ]
  %19 = icmp eq i32 %.0.i, 5
  br i1 %19, label %20, label %24

20:                                               ; preds = %lean_obj_tag.exit
  %21 = getelementptr inbounds nuw i8, ptr %0, i64 8
  %22 = load ptr, ptr %21, align 8, !tbaa !4
  %23 = tail call ptr @l___private_Lean_Meta_Tactic_Grind_Beta_0__Lean_Meta_Grind_isPropagateBetaTarget_go(ptr noundef %22, ptr noundef %1, ptr noundef %2, ptr noundef %3, ptr noundef %4, ptr noundef %5, ptr noundef %6, ptr noundef %7, ptr noundef %8, ptr noundef %9)
  br label %31

24:                                               ; preds = %lean_obj_tag.exit
  tail call void @lean_inc_heartbeat() #5
  %25 = tail call noalias ptr @mi_malloc_small(i64 noundef 24) #5
  %26 = icmp eq ptr %25, null
  br i1 %26, label %27, label %lean_alloc_ctor.exit

27:                                               ; preds = %24
  tail call void @lean_internal_panic_out_of_memory() #6
  unreachable

lean_alloc_ctor.exit:                             ; preds = %24
  %28 = getelementptr inbounds nuw i8, ptr %25, i64 4
  store i32 1, ptr %25, align 4, !tbaa !8
  store i32 131096, ptr %28, align 4
  %29 = getelementptr inbounds nuw i8, ptr %25, i64 8
  store ptr inttoptr (i64 1 to ptr), ptr %29, align 8, !tbaa !4
  %30 = getelementptr inbounds nuw i8, ptr %25, i64 16
  store ptr %9, ptr %30, align 8, !tbaa !4
  br label %31

31:                                               ; preds = %lean_alloc_ctor.exit, %20
  %.0 = phi ptr [ %23, %20 ], [ %25, %lean_alloc_ctor.exit ]
  ret ptr %.0
}